; Function Attrs: mustprogress nofree norecurse nosync nounwind willreturn memory(argmem: readwrite) uwtable
define noundef ptr @u_memcpy_77(ptr noundef returned writeonly %0, ptr noundef readonly captures(none) %1, i32 noundef %2) local_unnamed_addr #7 {
  %4 = icmp sgt i32 %2, 0
  br i1 %4, label %5, label %8

5:                                                ; preds = %3
  %6 = shl nuw i32 %2, 1
  %7 = zext i32 %6 to i64
  tail call void @llvm.memcpy.p0.p0.i64(ptr align 2 %0, ptr align 2 %1, i64 %7, i1 false)
  br label %8

8:                                                ; preds = %5, %3
  ret ptr %0
}